target datalayout = "e-m:e-p270:32:32-p271:32:32-p272:64:64-i64:64-i128:128-f80:128-n8:16:32:64-S128"
target triple = "x86_64-pc-linux-gnu"

%"struct.std::_Vector_base" = type { %"struct.std::_Vector_base<cv::Ptr<cv::dynafu::WarpNode>, std::allocator<cv::Ptr<cv::dynafu::WarpNode>>>::_Vector_impl" }
%"struct.std::_Vector_base<cv::Ptr<cv::dynafu::WarpNode>, std::allocator<cv::Ptr<cv::dynafu::WarpNode>>>::_Vector_impl" = type { %"struct.std::_Vector_base<cv::Ptr<cv::dynafu::WarpNode>, std::allocator<cv::Ptr<cv::dynafu::WarpNode>>>::_Vector_impl_data" }
%"struct.std::_Vector_base<cv::Ptr<cv::dynafu::WarpNode>, std::allocator<cv::Ptr<cv::dynafu::WarpNode>>>::_Vector_impl_data" = type { ptr, ptr, ptr }
%"class.std::__shared_count" = type { ptr }
%"class.cv::Mat" = type { i32, i32, i32, i32, ptr, ptr, ptr, ptr, ptr, ptr, %"struct.cv::MatSize", %"struct.cv::MatStep" }
%"struct.cv::MatSize" = type { ptr }
%"struct.cv::MatStep" = type { ptr, [2 x i64] }
%"class.cv::Point3_" = type { float, float, float }
%"struct.cv::dynafu::WarpNode" = type { %"class.cv::Point3_", float, %"class.cv::Affine3" }
%"class.cv::Affine3" = type { %"class.cv::Matx" }
%"class.cv::Matx" = type { [16 x float] }
%"struct.cv::Ptr.13" = type { %"class.std::shared_ptr.14" }
%"class.std::shared_ptr.14" = type { %"class.std::__shared_ptr.15" }
%"class.std::__shared_ptr.15" = type { ptr, %"class.std::__shared_count" }

; Function Attrs: mustprogress nounwind uwtable
define linkonce_odr hidden noundef ptr @_ZNKSt12__shared_ptrIN2cv6dynafu8WarpNodeELN9__gnu_cxx12_Lock_policyE2EE3getEv(ptr noundef nonnull align 8 dereferenceable(16) %0) #6 comdat align 2 {
  %2 = alloca ptr, align 8
  store ptr %0, ptr %2, align 8
  %3 = load ptr, ptr %2, align 8
  %4 = getelementptr inbounds %"class.std::__shared_ptr.15", ptr %3, i32 0, i32 0
  %5 = load ptr, ptr %4, align 8
  ret ptr %5
}

; Function Attrs: mustprogress nounwind uwtable
define linkonce_odr hidden noundef nonnull align 4 dereferenceable(4) ptr @_ZN2cv3Mat2atIfEERT_ii(ptr noundef nonnull align 8 dereferenceable(96) %0, i32 noundef %1, i32 noundef %2) #6 comdat align 2 {
  %4 = alloca ptr, align 8
  %5 = alloca i32, align 4
  %6 = alloca i32, align 4
  store ptr %0, ptr %4, align 8
  store i32 %1, ptr %5, align 4
  store i32 %2, ptr %6, align 4
  %7 = load ptr, ptr %4, align 8
  %8 = getelementptr inbounds %"class.cv::Mat", ptr %7, i32 0, i32 4
  %9 = load ptr, ptr %8, align 8
  %10 = getelementptr inbounds %"class.cv::Mat", ptr %7, i32 0, i32 11
  %11 = getelementptr inbounds %"struct.cv::MatStep", ptr %10, i32 0, i32 0
  %12 = load ptr, ptr %11, align 8
  %13 = getelementptr inbounds i64, ptr %12, i64 0
  %14 = load i64, ptr %13, align 8
  %15 = load i32, ptr %5, align 4
  %16 = sext i32 %15 to i64
  %17 = mul i64 %14, %16
  %18 = getelementptr inbounds i8, ptr %9, i64 %17
  %19 = load i32, ptr %6, align 4
  %20 = sext i32 %19 to i64
  %21 = getelementptr inbounds float, ptr %18, i64 %20
  ret ptr %21
}

; Function Attrs: mustprogress nounwind uwtable
define linkonce_odr hidden noundef ptr @_ZNK2cv3PtrINS_6dynafu8WarpNodeEEptEv(ptr noundef nonnull align 8 dereferenceable(16) %0) #6 comdat align 2 {
  %2 = alloca ptr, align 8
  store ptr %0, ptr %2, align 8
  %3 = load ptr, ptr %2, align 8
  %4 = call noundef ptr @_ZNKSt12__shared_ptrIN2cv6dynafu8WarpNodeELN9__gnu_cxx12_Lock_policyE2EE3getEv(ptr noundef nonnull align 8 dereferenceable(16) %3) #3
  ret ptr %4
}

; Function Attrs: mustprogress nounwind uwtable
define linkonce_odr hidden noundef nonnull align 8 dereferenceable(16) ptr @_ZNSt6vectorIN2cv3PtrINS0_6dynafu8WarpNodeEEESaIS4_EEixEm(ptr noundef nonnull align 8 dereferenceable(24) %0, i64 noundef %1) #6 comdat align 2 {
  %3 = alloca ptr, align 8
  %4 = alloca i64, align 8
  store ptr %0, ptr %3, align 8
  store i64 %1, ptr %4, align 8
  %5 = load ptr, ptr %3, align 8
  %6 = getelementptr inbounds %"struct.std::_Vector_base", ptr %5, i32 0, i32 0
  %7 = getelementptr inbounds %"struct.std::_Vector_base<cv::Ptr<cv::dynafu::WarpNode>, std::allocator<cv::Ptr<cv::dynafu::WarpNode>>>::_Vector_impl_data", ptr %6, i32 0, i32 0
  %8 = load ptr, ptr %7, align 8
  %9 = load i64, ptr %4, align 8
  %10 = getelementptr inbounds %"struct.cv::Ptr.13", ptr %8, i64 %9
  ret ptr %10
}

; Function Attrs: mustprogress nounwind uwtable
define linkonce_odr hidden noundef i64 @_ZNKSt6vectorIN2cv3PtrINS0_6dynafu8WarpNodeEEESaIS4_EE4sizeEv(ptr noundef nonnull align 8 dereferenceable(24) %0) #6 comdat align 2 {
  %2 = alloca ptr, align 8
  store ptr %0, ptr %2, align 8
  %3 = load ptr, ptr %2, align 8
  %4 = getelementptr inbounds %"struct.std::_Vector_base", ptr %3, i32 0, i32 0
  %5 = getelementptr inbounds %"struct.std::_Vector_base<cv::Ptr<cv::dynafu::WarpNode>, std::allocator<cv::Ptr<cv::dynafu::WarpNode>>>::_Vector_impl_data", ptr %4, i32 0, i32 1
  %6 = load ptr, ptr %5, align 8
  %7 = getelementptr inbounds %"struct.std::_Vector_base", ptr %3, i32 0, i32 0
  %8 = getelementptr inbounds %"struct.std::_Vector_base<cv::Ptr<cv::dynafu::WarpNode>, std::allocator<cv::Ptr<cv::dynafu::WarpNode>>>::_Vector_impl_data", ptr %7, i32 0, i32 0
  %9 = load ptr, ptr %8, align 8
  %10 = ptrtoint ptr %6 to i64
  %11 = ptrtoint ptr %9 to i64
  %12 = sub i64 %10, %11
  %13 = sdiv exact i64 %12, 16
  ret i64 %13
}

; Function Attrs: mustprogress uwtable
define hidden void @_ZN2cv6dynafu11getNodesPosESt6vectorINS_3PtrINS0_8WarpNodeEEESaIS4_EE(ptr dead_on_unwind noalias writable sret(%"class.cv::Mat") align 8 %0, ptr noundef %1) #4 personality ptr @__gxx_personality_v0 {
  %3 = alloca ptr, align 8
  %4 = alloca ptr, align 8
  %5 = alloca i1, align 1
  %6 = alloca i32, align 4
  %7 = alloca ptr, align 8
  %8 = alloca i32, align 4
  store ptr %0, ptr %3, align 8
  store ptr %1, ptr %4, align 8
  store i1 false, ptr %5, align 1
  %9 = call noundef i64 @_ZNKSt6vectorIN2cv3PtrINS0_6dynafu8WarpNodeEEESaIS4_EE4sizeEv(ptr noundef nonnull align 8 dereferenceable(24) %1) #3
  %10 = trunc i64 %9 to i32
  call void @_ZN2cv3MatC1Eiii(ptr noundef nonnull align 8 dereferenceable(96) %0, i32 noundef %10, i32 noundef 3, i32 noundef 5)
  store i32 0, ptr %6, align 4
  br label %11

11:                                               ; preds = %47, %2
  %12 = load i32, ptr %6, align 4
  %13 = call noundef i64 @_ZNKSt6vectorIN2cv3PtrINS0_6dynafu8WarpNodeEEESaIS4_EE4sizeEv(ptr noundef nonnull align 8 dereferenceable(24) %1) #3
  %14 = trunc i64 %13 to i32
  %15 = icmp slt i32 %12, %14
  br i1 %15, label %16, label %54

16:                                               ; preds = %11
  %17 = load i32, ptr %6, align 4
  %18 = sext i32 %17 to i64
  %19 = call noundef nonnull align 8 dereferenceable(16) ptr @_ZNSt6vectorIN2cv3PtrINS0_6dynafu8WarpNodeEEESaIS4_EEixEm(ptr noundef nonnull align 8 dereferenceable(24) %1, i64 noundef %18) #3
  %20 = call noundef ptr @_ZNK2cv3PtrINS_6dynafu8WarpNodeEEptEv(ptr noundef nonnull align 8 dereferenceable(16) %19) #3
  %21 = getelementptr inbounds %"struct.cv::dynafu::WarpNode", ptr %20, i32 0, i32 0
  %22 = getelementptr inbounds %"class.cv::Point3_", ptr %21, i32 0, i32 0
  %23 = load float, ptr %22, align 4
  %24 = load i32, ptr %6, align 4
  %25 = invoke noundef nonnull align 4 dereferenceable(4) ptr @_ZN2cv3Mat2atIfEERT_ii(ptr noundef nonnull align 8 dereferenceable(96) %0, i32 noundef %24, i32 noundef 0)
          to label %26 unwind label %50

26:                                               ; preds = %16
  store float %23, ptr %25, align 4
  %27 = load i32, ptr %6, align 4
  %28 = sext i32 %27 to i64
  %29 = call noundef nonnull align 8 dereferenceable(16) ptr @_ZNSt6vectorIN2cv3PtrINS0_6dynafu8WarpNodeEEESaIS4_EEixEm(ptr noundef nonnull align 8 dereferenceable(24) %1, i64 noundef %28) #3
  %30 = call noundef ptr @_ZNK2cv3PtrINS_6dynafu8WarpNodeEEptEv(ptr noundef nonnull align 8 dereferenceable(16) %29) #3
  %31 = getelementptr inbounds %"struct.cv::dynafu::WarpNode", ptr %30, i32 0, i32 0
  %32 = getelementptr inbounds %"class.cv::Point3_", ptr %31, i32 0, i32 1
  %33 = load float, ptr %32, align 4
  %34 = load i32, ptr %6, align 4
  %35 = invoke noundef nonnull align 4 dereferenceable(4) ptr @_ZN2cv3Mat2atIfEERT_ii(ptr noundef nonnull align 8 dereferenceable(96) %0, i32 noundef %34, i32 noundef 1)
          to label %36 unwind label %50

36:                                               ; preds = %26
  store float %33, ptr %35, align 4
  %37 = load i32, ptr %6, align 4
  %38 = sext i32 %37 to i64
  %39 = call noundef nonnull align 8 dereferenceable(16) ptr @_ZNSt6vectorIN2cv3PtrINS0_6dynafu8WarpNodeEEESaIS4_EEixEm(ptr noundef nonnull align 8 dereferenceable(24) %1, i64 noundef %38) #3
  %40 = call noundef ptr @_ZNK2cv3PtrINS_6dynafu8WarpNodeEEptEv(ptr noundef nonnull align 8 dereferenceable(16) %39) #3
  %41 = getelementptr inbounds %"struct.cv::dynafu::WarpNode", ptr %40, i32 0, i32 0
  %42 = getelementptr inbounds %"class.cv::Point3_", ptr %41, i32 0, i32 2
  %43 = load float, ptr %42, align 4
  %44 = load i32, ptr %6, align 4
  %45 = invoke noundef nonnull align 4 dereferenceable(4) ptr @_ZN2cv3Mat2atIfEERT_ii(ptr noundef nonnull align 8 dereferenceable(96) %0, i32 noundef %44, i32 noundef 2)
          to label %46 unwind label %50

46:                                               ; preds = %36
  store float %43, ptr %45, align 4
  br label %47

47:                                               ; preds = %46
  %48 = load i32, ptr %6, align 4
  %49 = add nsw i32 %48, 1
  store i32 %49, ptr %6, align 4
  br label %11, !llvm.loop !4

50:                                               ; preds = %36, %26, %16
  %51 = landingpad { ptr, i32 }
          cleanup
  %52 = extractvalue { ptr, i32 } %51, 0
  store ptr %52, ptr %7, align 8
  %53 = extractvalue { ptr, i32 } %51, 1
  store i32 %53, ptr %8, align 4
  call void @_ZN2cv3MatD1Ev(ptr noundef nonnull align 8 dereferenceable(96) %0) #3
  br label %58

54:                                               ; preds = %11
  store i1 true, ptr %5, align 1
  %55 = load i1, ptr %5, align 1
  br i1 %55, label %57, label %56

56:                                               ; preds = %54
  call void @_ZN2cv3MatD1Ev(ptr noundef nonnull align 8 dereferenceable(96) %0) #3
  br label %57

57:                                               ; preds = %56, %54
  ret void

58:                                               ; preds = %50
  %59 = load ptr, ptr %7, align 8
  %60 = load i32, ptr %8, align 4
  %61 = insertvalue { ptr, i32 } poison, ptr %59, 0
  %62 = insertvalue { ptr, i32 } %61, i32 %60, 1
  resume { ptr, i32 } %62
}