; Function Attrs: mustprogress uwtable
define hidden void @_ZN2cv6dynafu11getNodesPosESt6vectorINS_3PtrINS0_8WarpNodeEEESaIS4_EE(ptr dead_on_unwind noalias nonnull writable sret(%"class.cv::Mat") align 8 %0, ptr nocapture noundef readonly %1) local_unnamed_addr #3 personality ptr @__gxx_personality_v0 {
  %3 = getelementptr inbounds i8, ptr %1, i64 8
  %4 = load ptr, ptr %3, align 8
  %5 = load ptr, ptr %1, align 8
  %6 = ptrtoint ptr %4 to i64
  %7 = ptrtoint ptr %5 to i64
  %8 = sub i64 %6, %7
  %9 = lshr exact i64 %8, 4
  %10 = trunc i64 %9 to i32
  tail call void @_ZN2cv3MatC1Eiii(ptr noundef nonnull align 8 dereferenceable(96) %0, i32 noundef %10, i32 noundef 3, i32 noundef 5)
  %11 = load ptr, ptr %3, align 8
  %12 = load ptr, ptr %1, align 8
  %13 = ptrtoint ptr %11 to i64
  %14 = ptrtoint ptr %12 to i64
  %15 = sub i64 %13, %14
  %16 = lshr exact i64 %15, 4
  %17 = trunc i64 %16 to i32
  %18 = icmp sgt i32 %17, 0
  br i1 %18, label %.lr.ph, label %._crit_edge

.lr.ph:                                           ; preds = %2
  %19 = getelementptr inbounds i8, ptr %0, i64 16
  %20 = getelementptr inbounds i8, ptr %0, i64 72
  br label %21

21:                                               ; preds = %.lr.ph, %21
  %indvars.iv = phi i64 [ 0, %.lr.ph ], [ %indvars.iv.next, %21 ]
  %22 = phi ptr [ %12, %.lr.ph ], [ %54, %21 ]
  %23 = getelementptr inbounds %"struct.cv::Ptr.13", ptr %22, i64 %indvars.iv
  %24 = load ptr, ptr %23, align 8
  %25 = load float, ptr %24, align 4
  %26 = load ptr, ptr %19, align 8
  %27 = load ptr, ptr %20, align 8
  %28 = load i64, ptr %27, align 8
  %29 = mul i64 %28, %indvars.iv
  %30 = getelementptr inbounds i8, ptr %26, i64 %29
  store float %25, ptr %30, align 4
  %31 = load ptr, ptr %1, align 8
  %32 = getelementptr inbounds %"struct.cv::Ptr.13", ptr %31, i64 %indvars.iv
  %33 = load ptr, ptr %32, align 8
  %34 = getelementptr inbounds i8, ptr %33, i64 4
  %35 = load float, ptr %34, align 4
  %36 = load ptr, ptr %19, align 8
  %37 = load ptr, ptr %20, align 8
  %38 = load i64, ptr %37, align 8
  %39 = mul i64 %38, %indvars.iv
  %40 = getelementptr inbounds i8, ptr %36, i64 %39
  %41 = getelementptr inbounds i8, ptr %40, i64 4
  store float %35, ptr %41, align 4
  %42 = load ptr, ptr %1, align 8
  %43 = getelementptr inbounds %"struct.cv::Ptr.13", ptr %42, i64 %indvars.iv
  %44 = load ptr, ptr %43, align 8
  %45 = getelementptr inbounds i8, ptr %44, i64 8
  %46 = load float, ptr %45, align 4
  %47 = load ptr, ptr %19, align 8
  %48 = load ptr, ptr %20, align 8
  %49 = load i64, ptr %48, align 8
  %50 = mul i64 %49, %indvars.iv
  %51 = getelementptr inbounds i8, ptr %47, i64 %50
  %52 = getelementptr inbounds i8, ptr %51, i64 8
  store float %46, ptr %52, align 4
  %indvars.iv.next = add nuw nsw i64 %indvars.iv, 1
  %53 = load ptr, ptr %3, align 8
  %54 = load ptr, ptr %1, align 8
  %55 = ptrtoint ptr %53 to i64
  %56 = ptrtoint ptr %54 to i64
  %57 = sub i64 %55, %56
  %sext = shl i64 %57, 28
  %58 = ashr i64 %sext, 32
  %59 = icmp slt i64 %indvars.iv.next, %58
  br i1 %59, label %21, label %._crit_edge, !llvm.loop !8

._crit_edge:                                      ; preds = %21, %2
  ret void
}